target datalayout = "e-m:e-p270:32:32-p271:32:32-p272:64:64-i64:64-i128:128-f80:128-n8:16:32:64-S128"
target triple = "x86_64-pc-linux-gnu"

@aol_desegment = internal global i8 1, align 1

; Function Attrs: null_pointer_is_valid sspstrong uwtable
define internal i32 @dissect_aol(ptr noundef %0, ptr noundef %1, ptr noundef %2, ptr noundef %3) #0 {
  %5 = alloca i32, align 4
  %6 = alloca ptr, align 8
  %7 = alloca ptr, align 8
  %8 = alloca ptr, align 8
  %9 = alloca ptr, align 8
  store ptr %0, ptr %6, align 8
  store ptr %1, ptr %7, align 8
  store ptr %2, ptr %8, align 8
  store ptr %3, ptr %9, align 8
  %10 = load ptr, ptr %6, align 8
  %11 = call i32 @tvb_reported_length(ptr noundef %10)
  %12 = icmp uge i32 %11, 1
  br i1 %12, label %13, label %19

13:                                               ; preds = %4
  %14 = load ptr, ptr %6, align 8
  %15 = call zeroext i8 @tvb_get_uint8(ptr noundef %14, i32 noundef 0)
  %16 = zext i8 %15 to i32
  %17 = icmp ne i32 %16, 90
  br i1 %17, label %18, label %19

18:                                               ; preds = %13
  store i32 0, ptr %5, align 4
  br label %28

19:                                               ; preds = %13, %4
  %20 = load ptr, ptr %6, align 8
  %21 = load ptr, ptr %7, align 8
  %22 = load ptr, ptr %8, align 8
  %23 = load i8, ptr @aol_desegment, align 1, !range !6, !noundef !7
  %24 = trunc i8 %23 to i1
  %25 = load ptr, ptr %9, align 8
  call void @tcp_dissect_pdus(ptr noundef %20, ptr noundef %21, ptr noundef %22, i1 noundef zeroext %24, i32 noundef 9, ptr noundef @get_aol_pdu_len, ptr noundef @dissect_aol_pdu, ptr noundef %25)
  %26 = load ptr, ptr %6, align 8
  %27 = call i32 @tvb_reported_length(ptr noundef %26)
  store i32 %27, ptr %5, align 4
  br label %28

28:                                               ; preds = %19, %18
  %29 = load i32, ptr %5, align 4
  ret i32 %29
}