; Function Attrs: null_pointer_is_valid sspstrong uwtable
define internal i32 @dissect_aol(ptr noundef %0, ptr noundef %1, ptr noundef %2, ptr noundef %3) #0 {
  %5 = tail call i32 @tvb_reported_length(ptr noundef %0)
  %.not = icmp eq i32 %5, 0
  br i1 %.not, label %8, label %6

6:                                                ; preds = %4
  %7 = tail call zeroext i8 @tvb_get_uint8(ptr noundef %0, i32 noundef 0)
  %.not7 = icmp eq i8 %7, 90
  br i1 %.not7, label %8, label %12

8:                                                ; preds = %6, %4
  %9 = load i8, ptr @aol_desegment, align 1, !range !6, !noundef !7
  %10 = trunc nuw i8 %9 to i1
  tail call void @tcp_dissect_pdus(ptr noundef %0, ptr noundef %1, ptr noundef %2, i1 noundef zeroext %10, i32 noundef 9, ptr noundef nonnull @get_aol_pdu_len, ptr noundef nonnull @dissect_aol_pdu, ptr noundef %3)
  %11 = tail call i32 @tvb_reported_length(ptr noundef %0)
  br label %12

12:                                               ; preds = %6, %8
  %.0 = phi i32 [ %11, %8 ], [ 0, %6 ]
  ret i32 %.0
}